; Function Attrs: mustprogress nounwind uwtable
define hidden void @_ZN6Assimp9BVHLoaderC2Ev(ptr noundef nonnull align 8 dereferenceable(177) %this) unnamed_addr #0 align 2 {
entry:
  tail call void @_ZN6Assimp12BaseImporterC2Ev(ptr noundef nonnull align 8 dereferenceable(72) %this) #20
  store ptr getelementptr inbounds ({ [8 x ptr] }, ptr @_ZTVN6Assimp9BVHLoaderE, i64 0, i32 0, i64 2), ptr %this, align 8
  %mFileName = getelementptr inbounds i8, ptr %this, i64 72
  tail call void @_ZNSt7__cxx1112basic_stringIcSt11char_traitsIcESaIcEEC1Ev(ptr noundef nonnull align 8 dereferenceable(32) %mFileName) #20
  %mBuffer = getelementptr inbounds i8, ptr %this, i64 104
  tail call void @_ZNSaIcEC2Ev(ptr noundef nonnull align 1 dereferenceable(1) %mBuffer) #20
  %mNodes = getelementptr inbounds i8, ptr %this, i64 144
  tail call void @llvm.memset.p0.i64(ptr noundef nonnull align 8 dereferenceable(36) %mBuffer, i8 0, i64 36, i1 false)
  tail call void @llvm.memset.p0.i64(ptr noundef nonnull align 8 dereferenceable(33) %mNodes, i8 0, i64 33, i1 false)
  ret void
}